target datalayout = "e-m:e-p270:32:32-p271:32:32-p272:64:64-i64:64-i128:128-f80:128-n8:16:32:64-S128"
target triple = "x86_64-pc-linux-gnu"

%struct.mbedtls_cipher_info_t = type { ptr, i32 }
%struct.mbedtls_cipher_context_t = type { ptr, i32, i32, ptr, ptr, [16 x i8], i64, [16 x i8], i64, ptr, ptr }

; Function Attrs: inlinehint nounwind uwtable
define internal i64 @mbedtls_cipher_info_get_iv_size(ptr noundef %0) #3 {
  %2 = alloca i64, align 8
  %3 = alloca ptr, align 8
  store ptr %0, ptr %3, align 8, !tbaa !26
  %4 = load ptr, ptr %3, align 8, !tbaa !26
  %5 = icmp eq ptr %4, null
  br i1 %5, label %6, label %7

6:                                                ; preds = %1
  store i64 0, ptr %2, align 8
  br label %15

7:                                                ; preds = %1
  %8 = load ptr, ptr %3, align 8, !tbaa !26
  %9 = getelementptr inbounds nuw %struct.mbedtls_cipher_info_t, ptr %8, i32 0, i32 1
  %10 = load i32, ptr %9, align 8
  %11 = lshr i32 %10, 5
  %12 = and i32 %11, 7
  %13 = zext i32 %12 to i64
  %14 = shl i64 %13, 2
  store i64 %14, ptr %2, align 8
  br label %15

15:                                               ; preds = %7, %6
  %16 = load i64, ptr %2, align 8
  ret i64 %16
}

; Function Attrs: nounwind uwtable
define hidden i32 @mbedtls_cipher_set_iv(ptr noundef %0, ptr noundef %1, i64 noundef %2) #0 {
  %4 = alloca i32, align 4
  %5 = alloca ptr, align 8
  %6 = alloca ptr, align 8
  %7 = alloca i64, align 8
  %8 = alloca i64, align 8
  %9 = alloca i32, align 4
  %10 = alloca i32, align 4
  %11 = alloca i32, align 4
  store ptr %0, ptr %5, align 8, !tbaa !29
  store ptr %1, ptr %6, align 8, !tbaa !18
  store i64 %2, ptr %7, align 8, !tbaa !43
  call void @llvm.lifetime.start.p0(i64 8, ptr %8) #7
  %12 = load ptr, ptr %5, align 8, !tbaa !29
  %13 = getelementptr inbounds nuw %struct.mbedtls_cipher_context_t, ptr %12, i32 0, i32 0
  %14 = load ptr, ptr %13, align 8, !tbaa !36
  %15 = icmp eq ptr %14, null
  br i1 %15, label %16, label %17

16:                                               ; preds = %3
  store i32 -24832, ptr %4, align 4
  store i32 1, ptr %9, align 4
  br label %151

17:                                               ; preds = %3
  %18 = load i64, ptr %7, align 8, !tbaa !43
  %19 = icmp ugt i64 %18, 16
  br i1 %19, label %20, label %21

20:                                               ; preds = %17
  store i32 -24704, ptr %4, align 4
  store i32 1, ptr %9, align 4
  br label %151

21:                                               ; preds = %17
  %22 = load ptr, ptr %5, align 8, !tbaa !29
  %23 = getelementptr inbounds nuw %struct.mbedtls_cipher_context_t, ptr %22, i32 0, i32 0
  %24 = load ptr, ptr %23, align 8, !tbaa !36
  %25 = getelementptr inbounds nuw %struct.mbedtls_cipher_info_t, ptr %24, i32 0, i32 1
  %26 = load i32, ptr %25, align 8
  %27 = lshr i32 %26, 24
  %28 = and i32 %27, 3
  %29 = and i32 %28, 1
  %30 = icmp ne i32 %29, 0
  br i1 %30, label %31, label %33

31:                                               ; preds = %21
  %32 = load i64, ptr %7, align 8, !tbaa !43
  store i64 %32, ptr %8, align 8, !tbaa !43
  br label %43

33:                                               ; preds = %21
  %34 = load ptr, ptr %5, align 8, !tbaa !29
  %35 = getelementptr inbounds nuw %struct.mbedtls_cipher_context_t, ptr %34, i32 0, i32 0
  %36 = load ptr, ptr %35, align 8, !tbaa !36
  %37 = call i64 @mbedtls_cipher_info_get_iv_size(ptr noundef %36)
  store i64 %37, ptr %8, align 8, !tbaa !43
  %38 = load i64, ptr %8, align 8, !tbaa !43
  %39 = load i64, ptr %7, align 8, !tbaa !43
  %40 = icmp ugt i64 %38, %39
  br i1 %40, label %41, label %42

41:                                               ; preds = %33
  store i32 -24832, ptr %4, align 4
  store i32 1, ptr %9, align 4
  br label %151

42:                                               ; preds = %33
  br label %43

43:                                               ; preds = %42, %31
  %44 = load ptr, ptr %5, align 8, !tbaa !29
  %45 = getelementptr inbounds nuw %struct.mbedtls_cipher_context_t, ptr %44, i32 0, i32 0
  %46 = load ptr, ptr %45, align 8, !tbaa !36
  %47 = getelementptr inbounds nuw %struct.mbedtls_cipher_info_t, ptr %46, i32 0, i32 1
  %48 = load i32, ptr %47, align 8
  %49 = lshr i32 %48, 16
  %50 = and i32 %49, 255
  %51 = icmp eq i32 %50, 76
  br i1 %51, label %52, label %65

52:                                               ; preds = %43
  %53 = load i64, ptr %7, align 8, !tbaa !43
  %54 = icmp ne i64 %53, 12
  br i1 %54, label %55, label %56

55:                                               ; preds = %52
  store i32 -24832, ptr %4, align 4
  store i32 1, ptr %9, align 4
  br label %151

56:                                               ; preds = %52
  %57 = load ptr, ptr %5, align 8, !tbaa !29
  %58 = getelementptr inbounds nuw %struct.mbedtls_cipher_context_t, ptr %57, i32 0, i32 9
  %59 = load ptr, ptr %58, align 8, !tbaa !35
  %60 = load ptr, ptr %6, align 8, !tbaa !18
  %61 = call i32 @mbedtls_chacha20_starts(ptr noundef %59, ptr noundef %60, i32 noundef 0)
  %62 = icmp ne i32 0, %61
  br i1 %62, label %63, label %64

63:                                               ; preds = %56
  store i32 -24832, ptr %4, align 4
  store i32 1, ptr %9, align 4
  br label %151

64:                                               ; preds = %56
  br label %65

65:                                               ; preds = %64, %43
  %66 = load ptr, ptr %5, align 8, !tbaa !29
  %67 = getelementptr inbounds nuw %struct.mbedtls_cipher_context_t, ptr %66, i32 0, i32 0
  %68 = load ptr, ptr %67, align 8, !tbaa !36
  %69 = getelementptr inbounds nuw %struct.mbedtls_cipher_info_t, ptr %68, i32 0, i32 1
  %70 = load i32, ptr %69, align 8
  %71 = lshr i32 %70, 16
  %72 = and i32 %71, 255
  %73 = icmp eq i32 %72, 77
  br i1 %73, label %74, label %78

74:                                               ; preds = %65
  %75 = load i64, ptr %7, align 8, !tbaa !43
  %76 = icmp ne i64 %75, 12
  br i1 %76, label %77, label %78

77:                                               ; preds = %74
  store i32 -24832, ptr %4, align 4
  store i32 1, ptr %9, align 4
  br label %151

78:                                               ; preds = %74, %65
  %79 = load ptr, ptr %5, align 8, !tbaa !29
  %80 = getelementptr inbounds nuw %struct.mbedtls_cipher_context_t, ptr %79, i32 0, i32 0
  %81 = load ptr, ptr %80, align 8, !tbaa !36
  %82 = getelementptr inbounds nuw %struct.mbedtls_cipher_info_t, ptr %81, i32 0, i32 1
  %83 = load i32, ptr %82, align 8
  %84 = lshr i32 %83, 12
  %85 = and i32 %84, 15
  %86 = icmp eq i32 6, %85
  br i1 %86, label %87, label %97

87:                                               ; preds = %78
  %88 = load ptr, ptr %5, align 8, !tbaa !29
  %89 = getelementptr inbounds nuw %struct.mbedtls_cipher_context_t, ptr %88, i32 0, i32 9
  %90 = load ptr, ptr %89, align 8, !tbaa !35
  %91 = load ptr, ptr %5, align 8, !tbaa !29
  %92 = getelementptr inbounds nuw %struct.mbedtls_cipher_context_t, ptr %91, i32 0, i32 2
  %93 = load i32, ptr %92, align 4, !tbaa !40
  %94 = load ptr, ptr %6, align 8, !tbaa !18
  %95 = load i64, ptr %7, align 8, !tbaa !43
  %96 = call i32 @mbedtls_gcm_starts(ptr noundef %90, i32 noundef %93, ptr noundef %94, i64 noundef %95)
  store i32 %96, ptr %4, align 4
  store i32 1, ptr %9, align 4
  br label %151

97:                                               ; preds = %78
  %98 = load ptr, ptr %5, align 8, !tbaa !29
  %99 = getelementptr inbounds nuw %struct.mbedtls_cipher_context_t, ptr %98, i32 0, i32 0
  %100 = load ptr, ptr %99, align 8, !tbaa !36
  %101 = getelementptr inbounds nuw %struct.mbedtls_cipher_info_t, ptr %100, i32 0, i32 1
  %102 = load i32, ptr %101, align 8
  %103 = lshr i32 %102, 12
  %104 = and i32 %103, 15
  %105 = icmp eq i32 9, %104
  br i1 %105, label %106, label %138

106:                                              ; preds = %97
  call void @llvm.lifetime.start.p0(i64 4, ptr %10) #7
  call void @llvm.lifetime.start.p0(i64 4, ptr %11) #7
  %107 = load ptr, ptr %5, align 8, !tbaa !29
  %108 = getelementptr inbounds nuw %struct.mbedtls_cipher_context_t, ptr %107, i32 0, i32 9
  %109 = load ptr, ptr %108, align 8, !tbaa !35
  %110 = call i32 @mbedtls_ccm_set_lengths(ptr noundef %109, i64 noundef 0, i64 noundef 0, i64 noundef 0)
  store i32 %110, ptr %10, align 4, !tbaa !3
  %111 = load i32, ptr %10, align 4, !tbaa !3
  %112 = icmp ne i32 %111, 0
  br i1 %112, label %113, label %115

113:                                              ; preds = %106
  %114 = load i32, ptr %10, align 4, !tbaa !3
  store i32 %114, ptr %4, align 4
  store i32 1, ptr %9, align 4
  br label %137

115:                                              ; preds = %106
  %116 = load ptr, ptr %5, align 8, !tbaa !29
  %117 = getelementptr inbounds nuw %struct.mbedtls_cipher_context_t, ptr %116, i32 0, i32 2
  %118 = load i32, ptr %117, align 4, !tbaa !40
  %119 = icmp eq i32 %118, 0
  br i1 %119, label %120, label %121

120:                                              ; preds = %115
  store i32 2, ptr %11, align 4, !tbaa !3
  br label %129

121:                                              ; preds = %115
  %122 = load ptr, ptr %5, align 8, !tbaa !29
  %123 = getelementptr inbounds nuw %struct.mbedtls_cipher_context_t, ptr %122, i32 0, i32 2
  %124 = load i32, ptr %123, align 4, !tbaa !40
  %125 = icmp eq i32 %124, 1
  br i1 %125, label %126, label %127

126:                                              ; preds = %121
  store i32 3, ptr %11, align 4, !tbaa !3
  br label %128

127:                                              ; preds = %121
  store i32 -24832, ptr %4, align 4
  store i32 1, ptr %9, align 4
  br label %137

128:                                              ; preds = %126
  br label %129

129:                                              ; preds = %128, %120
  %130 = load ptr, ptr %5, align 8, !tbaa !29
  %131 = getelementptr inbounds nuw %struct.mbedtls_cipher_context_t, ptr %130, i32 0, i32 9
  %132 = load ptr, ptr %131, align 8, !tbaa !35
  %133 = load i32, ptr %11, align 4, !tbaa !3
  %134 = load ptr, ptr %6, align 8, !tbaa !18
  %135 = load i64, ptr %7, align 8, !tbaa !43
  %136 = call i32 @mbedtls_ccm_starts(ptr noundef %132, i32 noundef %133, ptr noundef %134, i64 noundef %135)
  store i32 %136, ptr %4, align 4
  store i32 1, ptr %9, align 4
  br label %137

137:                                              ; preds = %129, %127, %113
  call void @llvm.lifetime.end.p0(i64 4, ptr %11) #7
  call void @llvm.lifetime.end.p0(i64 4, ptr %10) #7
  br label %151

138:                                              ; preds = %97
  %139 = load i64, ptr %8, align 8, !tbaa !43
  %140 = icmp ne i64 %139, 0
  br i1 %140, label %141, label %150

141:                                              ; preds = %138
  %142 = load ptr, ptr %5, align 8, !tbaa !29
  %143 = getelementptr inbounds nuw %struct.mbedtls_cipher_context_t, ptr %142, i32 0, i32 7
  %144 = getelementptr inbounds [16 x i8], ptr %143, i64 0, i64 0
  %145 = load ptr, ptr %6, align 8, !tbaa !18
  %146 = load i64, ptr %8, align 8, !tbaa !43
  call void @llvm.memcpy.p0.p0.i64(ptr align 8 %144, ptr align 1 %145, i64 %146, i1 false)
  %147 = load i64, ptr %8, align 8, !tbaa !43
  %148 = load ptr, ptr %5, align 8, !tbaa !29
  %149 = getelementptr inbounds nuw %struct.mbedtls_cipher_context_t, ptr %148, i32 0, i32 8
  store i64 %147, ptr %149, align 8, !tbaa !44
  br label %150

150:                                              ; preds = %141, %138
  store i32 0, ptr %4, align 4
  store i32 1, ptr %9, align 4
  br label %151

151:                                              ; preds = %150, %137, %87, %77, %63, %55, %41, %20, %16
  call void @llvm.lifetime.end.p0(i64 8, ptr %8) #7
  %152 = load i32, ptr %4, align 4
  ret i32 %152
}