; Function Attrs: nounwind uwtable
define hidden i32 @mbedtls_cipher_set_iv(ptr noundef captures(none) %0, ptr noundef %1, i64 noundef %2) local_unnamed_addr #8 {
  %4 = load ptr, ptr %0, align 8, !tbaa !29
  %5 = icmp eq ptr %4, null
  br i1 %5, label %55, label %6

6:                                                ; preds = %3
  %7 = icmp ugt i64 %2, 16
  br i1 %7, label %55, label %8

8:                                                ; preds = %6
  %9 = getelementptr inbounds nuw i8, ptr %4, i64 8
  %10 = load i32, ptr %9, align 8
  %11 = and i32 %10, 16777216
  %.not = icmp eq i32 %11, 0
  br i1 %.not, label %mbedtls_cipher_info_get_iv_size.exit, label %16

mbedtls_cipher_info_get_iv_size.exit:             ; preds = %8
  %12 = lshr i32 %10, 3
  %13 = and i32 %12, 28
  %14 = zext nneg i32 %13 to i64
  %15 = icmp samesign ult i64 %2, %14
  br i1 %15, label %55, label %16

16:                                               ; preds = %8, %mbedtls_cipher_info_get_iv_size.exit
  %.036 = phi i64 [ %14, %mbedtls_cipher_info_get_iv_size.exit ], [ %2, %8 ]
  %17 = and i32 %10, 16711680
  %18 = icmp eq i32 %17, 4980736
  br i1 %18, label %19, label %27

19:                                               ; preds = %16
  %.not43 = icmp eq i64 %2, 12
  br i1 %.not43, label %20, label %55

20:                                               ; preds = %19
  %21 = getelementptr inbounds nuw i8, ptr %0, i64 80
  %22 = load ptr, ptr %21, align 8, !tbaa !28
  %23 = tail call i32 @mbedtls_chacha20_starts(ptr noundef %22, ptr noundef %1, i32 noundef 0) #15
  %.not44 = icmp eq i32 %23, 0
  br i1 %.not44, label %.thread, label %55

.thread:                                          ; preds = %20
  %24 = load ptr, ptr %0, align 8, !tbaa !29
  %25 = getelementptr inbounds nuw i8, ptr %24, i64 8
  %26 = load i32, ptr %25, align 8
  br label %30

27:                                               ; preds = %16
  %28 = icmp eq i32 %17, 5046272
  %29 = icmp ne i64 %2, 12
  %or.cond = and i1 %29, %28
  br i1 %or.cond, label %55, label %30

30:                                               ; preds = %.thread, %27
  %31 = phi i32 [ %26, %.thread ], [ %10, %27 ]
  %32 = lshr i32 %31, 12
  %33 = and i32 %32, 15
  switch i32 %33, label %51 [
    i32 6, label %34
    i32 9, label %40
  ]

34:                                               ; preds = %30
  %35 = getelementptr inbounds nuw i8, ptr %0, i64 80
  %36 = load ptr, ptr %35, align 8, !tbaa !28
  %37 = getelementptr inbounds nuw i8, ptr %0, i64 12
  %38 = load i32, ptr %37, align 4, !tbaa !33
  %39 = tail call i32 @mbedtls_gcm_starts(ptr noundef %36, i32 noundef %38, ptr noundef %1, i64 noundef %2) #15
  br label %55

40:                                               ; preds = %30
  %41 = getelementptr inbounds nuw i8, ptr %0, i64 80
  %42 = load ptr, ptr %41, align 8, !tbaa !28
  %43 = tail call i32 @mbedtls_ccm_set_lengths(ptr noundef %42, i64 noundef 0, i64 noundef 0, i64 noundef 0) #15
  %.not46 = icmp eq i32 %43, 0
  br i1 %.not46, label %44, label %55

44:                                               ; preds = %40
  %45 = getelementptr inbounds nuw i8, ptr %0, i64 12
  %46 = load i32, ptr %45, align 4, !tbaa !33
  switch i32 %46, label %55 [
    i32 0, label %48
    i32 1, label %47
  ]

47:                                               ; preds = %44
  br label %48

48:                                               ; preds = %44, %47
  %.0 = phi i32 [ 3, %47 ], [ 2, %44 ]
  %49 = load ptr, ptr %41, align 8, !tbaa !28
  %50 = tail call i32 @mbedtls_ccm_starts(ptr noundef %49, i32 noundef %.0, ptr noundef %1, i64 noundef %2) #15
  br label %55

51:                                               ; preds = %30
  %.not45 = icmp eq i64 %.036, 0
  br i1 %.not45, label %55, label %52

52:                                               ; preds = %51
  %53 = getelementptr inbounds nuw i8, ptr %0, i64 56
  tail call void @llvm.memcpy.p0.p0.i64(ptr nonnull align 8 %53, ptr align 1 %1, i64 %.036, i1 false)
  %54 = getelementptr inbounds nuw i8, ptr %0, i64 72
  store i64 %.036, ptr %54, align 8, !tbaa !35
  br label %55

55:                                               ; preds = %51, %52, %48, %40, %44, %27, %20, %19, %mbedtls_cipher_info_get_iv_size.exit, %6, %3, %34
  %.035 = phi i32 [ %39, %34 ], [ -24832, %3 ], [ -24704, %6 ], [ -24832, %mbedtls_cipher_info_get_iv_size.exit ], [ -24832, %19 ], [ -24832, %20 ], [ -24832, %27 ], [ %50, %48 ], [ %43, %40 ], [ -24832, %44 ], [ 0, %52 ], [ 0, %51 ]
  ret i32 %.035
}